Certificate:
    Data:
        Version: 3 (0x2)
        Serial Number: 3 (0x3)
        Signature Algorithm: sha256WithRSAEncryption
        Issuer: C=DE, ST=NI, L=OS, O=palow, OU=Development, CN=palow.org/emailAddress=ca@palow.org
        Validity
            Not Before: Feb 23 00:27:27 2021 GMT
            Not After : Feb 21 00:27:27 2031 GMT
        Subject: C=DE, ST=NI, L=OS, O=palow, CN=docker-idp
        Subject Public Key Info:
            Public Key Algorithm: rsaEncryption
                RSA Public-Key: (2048 bit)
                Modulus:
                    00:be:5e:ca:7b:82:78:11:19:ae:2e:9c:c0:a6:55:
                    6d:f4:46:8c:41:d7:64:2c:32:fa:e9:c1:33:23:48:
                    a0:e6:79:49:c5:a8:7f:24:7a:11:25:93:73:da:3c:
                    65:5f:7c:45:b9:9a:3b:90:6f:59:cf:2c:56:7e:19:
                    8d:27:7e:d9:98:41:55:48:40:0b:ab:19:b5:a7:04:
                    17:e7:e3:58:40:4e:b8:7e:7b:d3:60:74:02:d2:95:
                    d2:26:6d:56:8e:9a:ac:9f:60:ac:19:e9:35:65:3b:
                    4a:8f:5f:34:ca:d5:4b:5c:d7:3f:1e:e2:f2:4e:e4:
                    99:ea:a3:6a:c1:3d:bc:e2:f5:07:29:5b:eb:f6:1a:
                    20:d4:16:b5:78:19:e7:f6:c0:f7:e5:eb:2c:2e:f9:
                    f9:d2:a6:ed:06:0f:5d:63:cd:53:f4:18:b0:2f:0d:
                    09:d6:77:9c:d1:21:e7:6d:68:33:cf:f4:27:8c:db:
                    b0:03:e9:8f:3c:48:da:48:23:3e:7e:4a:a8:cd:2a:
                    65:d5:d2:39:64:c7:3c:0c:0d:e5:dc:77:c5:c5:2c:
                    6c:ea:ce:ee:6b:98:27:95:92:26:f3:1a:97:6f:65:
                    2d:5a:c8:75:02:a8:66:2e:89:c0:10:bd:e2:37:42:
                    cc:d0:74:69:3f:46:a3:41:0b:5f:43:51:3f:f3:91:
                    3e:5d
                Exponent: 65537 (0x10001)
        X509v3 extensions:
            X509v3 Subject Key Identifier: 
                92:E6:53:27:15:C1:33:1A:D0:03:3C:44:9A:39:37:34:F1:B6:AE:A0
            X509v3 Authority Key Identifier: 
                keyid:F1:A6:CF:A5:78:8C:14:E9:1D:53:AA:C5:01:F4:3E:78:F4:F6:6E:E5

            X509v3 Basic Constraints: 
                CA:FALSE
            X509v3 Key Usage: 
                Digital Signature, Key Encipherment
            X509v3 Subject Alternative Name: 
                DNS:localhost, DNS:docker-idp, IP Address:127.0.0.1, IP Address:0:0:0:0:0:0:0:1
            Netscape Comment: 
                OpenSSL Generated Certificate
    Signature Algorithm: sha256WithRSAEncryption
         9b:cb:9a:48:b3:45:65:94:db:1b:d8:38:78:c8:a1:3a:8d:ab:
         f0:74:04:88:0c:0e:b2:21:db:6d:1c:84:49:7d:59:ad:a0:b4:
         79:cf:a8:f5:35:ad:dc:41:01:f5:59:07:55:77:8c:c2:9a:05:
         37:64:dc:a9:87:a0:27:f3:52:73:8d:9b:67:6e:1c:73:96:49:
         5c:d5:ac:93:a3:60:d8:9b:ff:1d:ff:34:87:d1:71:5b:82:21:
         6d:67:e8:c4:71:a7:19:38:75:b1:f2:8b:5a:47:6c:ee:00:60:
         52:89:53:54:20:c5:e1:8f:ab:0c:ee:f1:07:83:4d:60:be:4d:
         e5:42:0a:40:01:44:a9:f3:c2:d8:6b:9a:5e:44:17:ea:32:d3:
         0a:83:51:49:61:82:f0:b9:0e:b0:bf:b3:07:92:14:aa:76:98:
         7f:6b:6e:ba:01:f3:42:4d:c5:8c:db:2c:25:5c:48:49:4f:ba:
         85:fb:25:ee:0d:b6:81:e1:a9:7a:a0:29:ad:7f:aa:0c:58:a0:
         85:36:ed:ca:45:0a:61:51:c7:65:76:8d:c7:42:fd:a4:e6:35:
         7d:09:1d:84:ce:7b:c6:06:85:0c:90:75:7a:c2:11:8d:85:05:
         f8:da:64:e4:d4:82:ab:cf:22:f7:cb:e7:57:53:9d:01:ea:41:
         06:84:16:9b:13:75:43:f3:6f:03:29:88:b4:3b:5d:69:e9:4b:
         29:73:09:05:17:5a:bf:fb:1d:30:c4:0e:c8:de:31:b8:01:96:
         9a:51:b9:3d:84:c1:2f:da:76:7e:fa:e7:66:46:38:9b:9f:33:
         2d:23:52:8d:d7:aa:6d:0b:bd:ac:32:51:87:89:a5:8e:8c:44:
         94:72:fd:50:47:a4:d3:de:0a:aa:ee:cb:a7:5a:ef:cc:c6:d8:
         28:20:48:1a:f1:92:76:91:56:e6:9f:c6:ea:31:c3:b0:72:16:
         d6:ef:39:fa:79:8e:96:27:a5:c8:da:73:27:dc:f5:31:5d:33:
         1b:1e:44:fe:76:97:ad:17:b2:6e:c2:6c:a8:21:16:8e:47:a3:
         8d:c1:75:02:ca:16:63:b9:e1:cf:e9:86:96:6c:af:5a:e4:7c:
         f9:c8:58:a1:29:5f:62:a0:e9:06:c5:68:61:72:ea:59:37:0b:
         a1:89:3f:c8:72:18:5e:ea:38:9a:4a:9e:56:68:29:f6:22:51:
         05:6c:0d:1a:31:ef:fc:b1:fb:65:50:d8:dd:10:14:5f:f2:40:
         e4:35:5e:da:e6:35:37:c7:5d:23:69:e5:6c:0c:6a:dc:7d:5e:
         a5:02:c7:14:78:58:3e:36:fe:dd:73:f5:e4:4d:4c:85:fb:1e:
         7e:25:d9:e8:0f:5e:5b:a0
-----BEGIN CERTIFICATE-----
MIIFCTCCAvGgAwIBAgIBAzANBgkqhkiG9w0BAQsFADB+MQswCQYDVQQGEwJERTEL
MAkGA1UECAwCTkkxCzAJBgNVBAcMAk9TMQ4wDAYDVQQKDAVwYWxvdzEUMBIGA1UE
CwwLRGV2ZWxvcG1lbnQxEjAQBgNVBAMMCXBhbG93Lm9yZzEbMBkGCSqGSIb3DQEJ
ARYMY2FAcGFsb3cub3JnMB4XDTIxMDIyMzAwMjcyN1oXDTMxMDIyMTAwMjcyN1ow
TDELMAkGA1UEBhMCREUxCzAJBgNVBAgMAk5JMQswCQYDVQQHDAJPUzEOMAwGA1UE
CgwFcGFsb3cxEzARBgNVBAMMCmRvY2tlci1pZHAwggEiMA0GCSqGSIb3DQEBAQUA
A4IBDwAwggEKAoIBAQC+Xsp7gngRGa4unMCmVW30RoxB12QsMvrpwTMjSKDmeUnF
qH8kehElk3PaPGVffEW5mjuQb1nPLFZ+GY0nftmYQVVIQAurGbWnBBfn41hATrh+
e9NgdALSldImbVaOmqyfYKwZ6TVlO0qPXzTK1Utc1z8e4vJO5Jnqo2rBPbzi9Qcp
W+v2GiDUFrV4Gef2wPfl6ywu+fnSpu0GD11jzVP0GLAvDQnWd5zRIedtaDPP9CeM
27AD6Y88SNpIIz5+SqjNKmXV0jlkxzwMDeXcd8XFLGzqzu5rmCeVkibzGpdvZS1a
yHUCqGYuicAQveI3QszQdGk/RqNBC19DUT/zkT5dAgMBAAGjgcMwgcAwHQYDVR0O
BBYEFJLmUycVwTMa0AM8RJo5NzTxtq6gMB8GA1UdIwQYMBaAFPGmz6V4jBTpHVOq
xQH0Pnj09m7lMAkGA1UdEwQCMAAwCwYDVR0PBAQDAgWgMDgGA1UdEQQxMC+CCWxv
Y2FsaG9zdIIKZG9ja2VyLWlkcIcEfwAAAYcQAAAAAAAAAAAAAAAAAAAAATAsBglg
hkgBhvhCAQ0EHxYdT3BlblNTTCBHZW5lcmF0ZWQgQ2VydGlmaWNhdGUwDQYJKoZI
hvcNAQELBQADggIBAJvLmkizRWWU2xvYOHjIoTqNq/B0BIgMDrIh220chEl9Wa2g
tHnPqPU1rdxBAfVZB1V3jMKaBTdk3KmHoCfzUnONm2duHHOWSVzVrJOjYNib/x3/
NIfRcVuCIW1n6MRxpxk4dbHyi1pHbO4AYFKJU1QgxeGPqwzu8QeDTWC+TeVCCkAB
RKnzwthrml5EF+oy0wqDUUlhgvC5DrC/sweSFKp2mH9rbroB80JNxYzbLCVcSElP
uoX7Je4NtoHhqXqgKa1/qgxYoIU27cpFCmFRx2V2jcdC/aTmNX0JHYTOe8YGhQyQ
dXrCEY2FBfjaZOTUgqvPIvfL51dTnQHqQQaEFpsTdUPzbwMpiLQ7XWnpSylzCQUX
Wr/7HTDEDsjeMbgBlppRuT2EwS/adn7652ZGOJufMy0jUo3Xqm0LvawyUYeJpY6M
RJRy/VBHpNPeCqruy6da78zG2CggSBrxknaRVuafxuoxw7ByFtbvOfp5jpYnpcja
cyfc9TFdMxseRP52l60Xsm7CbKghFo5Ho43BdQLKFmO54c/phpZsr1rkfPnIWKEp
X2Kg6QbFaGFy6lk3C6GJP8hyGF7qOJpKnlZoKfYiUQVsDRox7/yx+2VQ2N0QFF/y
QOQ1XtrmNTfHXSNp5WwMatx9XqUCxxR4WD42/t1z9eRNTIX7Hn4l2egPXlug
-----END CERTIFICATE-----
