Certificate:
    Data:
        Version: 3 (0x2)
        Serial Number: 2 (0x2)
        Signature Algorithm: sha256WithRSAEncryption
        Issuer: C=DE, ST=NI, L=OS, O=palow, OU=Development, CN=palow.org/emailAddress=ca@palow.org
        Validity
            Not Before: Feb 22 21:07:17 2021 GMT
            Not After : Feb 20 21:07:17 2031 GMT
        Subject: C=DE, ST=NI, L=OS, O=palow, CN=docker-webapp
        Subject Public Key Info:
            Public Key Algorithm: rsaEncryption
                RSA Public-Key: (2048 bit)
                Modulus:
                    00:98:34:3d:4e:46:c4:cf:36:d5:a8:86:f9:06:04:
                    05:32:4b:78:9c:be:84:82:79:eb:fc:e9:a3:2e:42:
                    f3:a1:50:a4:01:ff:0a:1a:b2:0f:9e:bd:fd:29:16:
                    6d:f0:c9:61:e4:bf:cf:f0:20:04:4c:94:ed:0b:ab:
                    25:e5:27:a9:4f:0b:f1:51:56:f3:db:0d:0d:4e:94:
                    96:fd:e2:20:e7:ab:f3:6d:4a:73:d4:da:9f:2a:81:
                    3a:8b:0a:a5:e4:80:0c:8e:51:fb:79:3a:13:cf:34:
                    61:c5:5b:20:1f:15:d3:fd:6b:41:02:1b:df:28:40:
                    33:47:a5:41:11:f7:4f:f4:7e:75:41:17:4e:a1:51:
                    4d:3e:f3:cc:ad:cd:22:be:96:f1:15:45:35:bb:ce:
                    87:ba:32:9c:87:9f:57:40:92:1b:50:c5:dc:fa:ad:
                    96:40:52:b7:fe:1f:23:a1:f6:e1:ac:44:12:34:48:
                    48:80:9b:04:4e:c2:af:f6:7c:02:98:27:0b:be:d0:
                    02:69:ea:2a:df:a7:41:fe:a8:3c:bb:ee:4d:4e:4d:
                    ef:0e:93:c5:95:5b:09:35:52:86:ef:9a:13:b2:b5:
                    af:31:47:05:aa:a7:24:1a:9c:9e:60:3c:d7:d4:46:
                    77:2b:eb:25:cd:ed:b5:1f:8a:e5:8f:89:43:7c:49:
                    14:a5
                Exponent: 65537 (0x10001)
        X509v3 extensions:
            X509v3 Subject Key Identifier: 
                CB:DF:A0:03:BB:3F:3D:2A:4B:8C:01:84:79:38:68:72:6A:16:D7:CB
            X509v3 Authority Key Identifier: 
                keyid:F1:A6:CF:A5:78:8C:14:E9:1D:53:AA:C5:01:F4:3E:78:F4:F6:6E:E5

            X509v3 Basic Constraints: 
                CA:FALSE
            X509v3 Key Usage: 
                Digital Signature, Key Encipherment
            X509v3 Subject Alternative Name: 
                DNS:localhost, DNS:docker-webapp, IP Address:127.0.0.1, IP Address:0:0:0:0:0:0:0:1
            Netscape Comment: 
                OpenSSL Generated Certificate
    Signature Algorithm: sha256WithRSAEncryption
         37:40:44:95:64:d4:1c:5d:c1:81:06:a9:32:ab:5b:26:98:c8:
         62:7c:5c:8e:c8:f1:06:eb:cb:2a:77:26:51:97:bb:f7:3a:e3:
         84:97:2d:b9:82:5c:16:66:65:8b:5b:fe:6f:35:91:23:77:6c:
         8d:0b:3a:af:a9:c9:a2:0a:b3:51:e4:51:a5:d9:d2:4e:97:1b:
         ee:ac:e7:c3:85:c1:fb:c5:aa:2c:2c:db:3f:d2:00:f2:e8:c3:
         fe:5c:b3:98:f0:40:26:b2:84:a4:7d:0a:9a:51:b3:ae:82:1e:
         c1:15:58:b0:c5:42:9f:ec:db:49:d6:03:17:56:e5:c6:04:c6:
         76:e8:4c:07:26:e5:10:8c:63:58:e4:7e:89:c0:63:a5:db:64:
         bb:25:50:ec:f9:68:7f:93:aa:73:31:92:7d:52:b6:e8:bf:46:
         90:20:2e:c7:da:fb:a2:6f:3b:5b:60:8c:47:f7:bc:c0:6f:9d:
         d0:c8:be:79:7c:9f:a3:3e:1f:e1:d4:6f:b5:0a:58:67:54:5d:
         e4:6a:80:f4:87:22:de:49:7a:60:91:4a:3e:aa:b8:66:c1:fd:
         4a:35:1e:e2:40:5c:f8:a3:f2:99:fe:3b:4e:e6:3e:ac:05:c8:
         53:6b:c4:7c:53:9d:52:19:77:6d:03:97:1b:d6:0b:fa:c9:7e:
         2b:5a:fb:29:6d:76:f2:ba:92:b9:0d:51:62:39:5d:46:d2:e9:
         11:46:f1:62:d1:ff:4a:62:ca:3f:54:66:d0:2c:4a:13:df:19:
         cb:00:b9:02:28:4d:4e:31:5d:a4:d6:8a:13:5a:f8:7a:cf:ae:
         06:88:7f:7a:31:5c:76:09:22:62:d5:ea:71:de:8a:ed:3e:2f:
         bb:5d:7f:b0:50:fb:bb:1b:f0:cc:84:c9:09:b9:85:f7:eb:04:
         4f:4b:d5:11:a4:ca:6d:02:89:a4:0d:78:8c:20:13:7a:f0:9e:
         a3:e7:4b:53:de:e9:59:c0:9a:a9:db:45:10:a3:dc:4a:a1:a8:
         12:32:90:61:ad:20:d8:56:5e:ea:48:a2:2d:bb:a8:ae:25:98:
         95:d1:af:43:ff:0e:c9:0c:94:8e:2c:7b:95:25:c3:7c:a0:49:
         ea:41:e9:96:1d:51:d1:65:dd:f5:70:c4:6c:d5:86:09:18:de:
         af:70:6c:8a:23:c0:b2:83:09:4d:6b:76:67:41:36:bd:ba:a0:
         72:00:a1:92:5a:8a:77:bc:f9:e3:3a:d0:72:54:5f:56:cb:1e:
         22:44:68:ca:77:00:68:94:6f:c8:4f:8f:a4:d0:ea:28:74:49:
         b0:92:8d:34:a2:50:50:6b:ce:7c:4f:1c:00:aa:55:31:ed:ed:
         62:8b:e4:96:3e:fc:c7:20
-----BEGIN CERTIFICATE-----
MIIFDzCCAvegAwIBAgIBAjANBgkqhkiG9w0BAQsFADB+MQswCQYDVQQGEwJERTEL
MAkGA1UECAwCTkkxCzAJBgNVBAcMAk9TMQ4wDAYDVQQKDAVwYWxvdzEUMBIGA1UE
CwwLRGV2ZWxvcG1lbnQxEjAQBgNVBAMMCXBhbG93Lm9yZzEbMBkGCSqGSIb3DQEJ
ARYMY2FAcGFsb3cub3JnMB4XDTIxMDIyMjIxMDcxN1oXDTMxMDIyMDIxMDcxN1ow
TzELMAkGA1UEBhMCREUxCzAJBgNVBAgMAk5JMQswCQYDVQQHDAJPUzEOMAwGA1UE
CgwFcGFsb3cxFjAUBgNVBAMMDWRvY2tlci13ZWJhcHAwggEiMA0GCSqGSIb3DQEB
AQUAA4IBDwAwggEKAoIBAQCYND1ORsTPNtWohvkGBAUyS3icvoSCeev86aMuQvOh
UKQB/woasg+evf0pFm3wyWHkv8/wIARMlO0LqyXlJ6lPC/FRVvPbDQ1OlJb94iDn
q/NtSnPU2p8qgTqLCqXkgAyOUft5OhPPNGHFWyAfFdP9a0ECG98oQDNHpUER90/0
fnVBF06hUU0+88ytzSK+lvEVRTW7zoe6MpyHn1dAkhtQxdz6rZZAUrf+HyOh9uGs
RBI0SEiAmwROwq/2fAKYJwu+0AJp6irfp0H+qDy77k1OTe8Ok8WVWwk1UobvmhOy
ta8xRwWqpyQanJ5gPNfURncr6yXN7bUfiuWPiUN8SRSlAgMBAAGjgcYwgcMwHQYD
VR0OBBYEFMvfoAO7Pz0qS4wBhHk4aHJqFtfLMB8GA1UdIwQYMBaAFPGmz6V4jBTp
HVOqxQH0Pnj09m7lMAkGA1UdEwQCMAAwCwYDVR0PBAQDAgWgMDsGA1UdEQQ0MDKC
CWxvY2FsaG9zdIINZG9ja2VyLXdlYmFwcIcEfwAAAYcQAAAAAAAAAAAAAAAAAAAA
ATAsBglghkgBhvhCAQ0EHxYdT3BlblNTTCBHZW5lcmF0ZWQgQ2VydGlmaWNhdGUw
DQYJKoZIhvcNAQELBQADggIBADdARJVk1BxdwYEGqTKrWyaYyGJ8XI7I8Qbryyp3
JlGXu/c644SXLbmCXBZmZYtb/m81kSN3bI0LOq+pyaIKs1HkUaXZ0k6XG+6s58OF
wfvFqiws2z/SAPLow/5cs5jwQCayhKR9CppRs66CHsEVWLDFQp/s20nWAxdW5cYE
xnboTAcm5RCMY1jkfonAY6XbZLslUOz5aH+TqnMxkn1Stui/RpAgLsfa+6JvO1tg
jEf3vMBvndDIvnl8n6M+H+HUb7UKWGdUXeRqgPSHIt5JemCRSj6quGbB/Uo1HuJA
XPij8pn+O07mPqwFyFNrxHxTnVIZd20DlxvWC/rJfita+yltdvK6krkNUWI5XUbS
6RFG8WLR/0piyj9UZtAsShPfGcsAuQIoTU4xXaTWihNa+HrPrgaIf3oxXHYJImLV
6nHeiu0+L7tdf7BQ+7sb8MyEyQm5hffrBE9L1RGkym0CiaQNeIwgE3rwnqPnS1Pe
6VnAmqnbRRCj3EqhqBIykGGtINhWXupIoi27qK4lmJXRr0P/DskMlI4se5Ulw3yg
SepB6ZYdUdFl3fVwxGzVhgkY3q9wbIojwLKDCU1rdmdBNr26oHIAoZJaine8+eM6
0HJUX1bLHiJEaMp3AGiUb8hPj6TQ6ih0SbCSjTSiUFBrznxPHACqVTHt7WKL5JY+
/Mcg
-----END CERTIFICATE-----
