Certificate:
    Data:
        Version: 3 (0x2)
        Serial Number: 1 (0x1)
        Signature Algorithm: sha256WithRSAEncryption
        Issuer: C=DE, ST=NI, L=OS, O=palow, OU=Development, CN=palow.org/emailAddress=ca@palow.org
        Validity
            Not Before: Feb 22 06:56:52 2021 GMT
            Not After : Feb 20 06:56:52 2031 GMT
        Subject: C=DE, ST=NI, L=OS, O=palow, CN=docker-webapi
        Subject Public Key Info:
            Public Key Algorithm: rsaEncryption
                RSA Public-Key: (2048 bit)
                Modulus:
                    00:d4:f7:5d:48:cc:a7:69:48:4c:3d:db:c8:63:be:
                    38:3c:b6:d1:5e:ae:26:87:bc:e8:a8:c0:3e:ca:27:
                    fb:0b:9f:0b:a5:69:85:3c:d7:eb:dd:af:78:1e:4f:
                    e8:06:33:2d:bd:c6:2c:d7:0c:ba:ce:3d:b1:b8:08:
                    c7:bb:81:df:a9:71:32:91:a3:7c:6b:04:16:af:01:
                    28:6b:e0:2d:ab:2d:0a:a6:61:cf:d1:95:8b:c5:68:
                    8b:36:66:32:64:8b:15:89:b6:99:68:44:9e:c5:28:
                    ed:95:25:82:31:6a:d4:ee:50:fc:37:ea:25:86:b2:
                    34:85:c8:66:cd:a6:d2:31:d5:a7:7a:d4:94:77:ef:
                    a3:41:fc:35:92:17:9c:58:c2:ab:33:e4:99:e6:a8:
                    97:b9:27:b9:4e:d1:ba:93:1d:a1:4f:96:ee:c9:17:
                    f2:e0:00:c8:81:a5:5c:43:ef:2d:09:3a:b3:06:2e:
                    7b:bd:39:60:ca:2f:96:6a:65:ba:b6:66:b2:4f:2b:
                    ac:71:1e:78:35:30:3a:8c:0d:88:ed:3f:06:a2:54:
                    43:d5:cb:fc:b0:5c:76:a1:33:cd:c6:4e:12:23:fa:
                    c4:89:ee:89:54:7c:c9:48:14:cb:0d:1f:b2:f7:b1:
                    c7:e1:15:3c:04:6d:a9:09:46:20:ef:84:2c:08:89:
                    12:51
                Exponent: 65537 (0x10001)
        X509v3 extensions:
            X509v3 Subject Key Identifier: 
                0B:4F:50:FC:6E:26:42:F2:86:0F:86:00:31:11:69:92:82:41:77:0A
            X509v3 Authority Key Identifier: 
                keyid:F1:A6:CF:A5:78:8C:14:E9:1D:53:AA:C5:01:F4:3E:78:F4:F6:6E:E5

            X509v3 Basic Constraints: 
                CA:FALSE
            X509v3 Key Usage: 
                Digital Signature, Key Encipherment
            X509v3 Subject Alternative Name: 
                DNS:localhost, DNS:docker-webapi, IP Address:127.0.0.1, IP Address:0:0:0:0:0:0:0:1
            Netscape Comment: 
                OpenSSL Generated Certificate
    Signature Algorithm: sha256WithRSAEncryption
         59:05:be:c7:db:da:2c:c1:2b:23:6b:84:c4:79:5e:be:ae:6f:
         34:e9:86:6f:0f:ae:db:00:15:92:90:6c:5a:43:02:68:03:4a:
         db:05:4f:6d:4c:8f:5f:ea:6a:7e:11:e8:8f:e3:31:d5:30:5f:
         db:e6:10:ec:e2:8a:29:bf:7b:0c:ee:41:8e:bc:cf:17:7b:1e:
         0e:d8:71:b9:40:b9:31:cd:e3:c5:cb:90:f2:27:ec:8a:45:73:
         c8:a0:12:e5:3c:36:a3:1f:50:a9:fc:32:a3:35:7a:76:15:f3:
         30:a9:c7:78:75:3c:21:b4:42:4d:dd:cc:4f:71:d4:b1:08:51:
         95:49:9f:10:2b:03:29:c7:e0:f3:fa:ff:d1:86:89:a4:60:56:
         87:57:fe:11:81:fc:65:89:31:b4:a2:88:9b:47:25:0f:d1:c9:
         1e:72:ca:8b:6f:bf:1d:e7:f3:64:fa:50:e9:8f:0a:cc:86:da:
         ac:96:4c:92:ff:49:bc:50:e8:7f:bc:46:24:ec:9f:d6:b6:2a:
         c0:e3:89:c1:3e:af:62:ff:dd:99:76:fc:51:b2:b2:40:b8:68:
         68:ff:d3:92:55:a7:89:67:22:3b:60:39:79:37:d0:89:e2:e7:
         74:4f:69:bf:b7:fb:c6:7d:5b:78:f2:f0:e9:73:8d:19:85:19:
         f0:ec:0c:5d:10:68:f1:93:bc:0e:37:1a:6f:d9:dd:da:93:91:
         a8:51:c1:a7:cf:5e:73:52:d0:9b:14:60:42:cc:45:fd:e8:eb:
         cf:95:22:51:b4:73:8e:88:8f:02:c6:e3:02:82:85:56:23:72:
         42:89:cd:6b:45:b4:d0:0a:24:e2:6a:7f:5e:ba:3e:41:12:86:
         66:53:f2:03:e5:96:a0:ba:71:0d:09:0a:66:83:13:98:8c:cf:
         5b:fe:6d:e7:35:2b:69:d5:59:38:79:bb:f0:73:c4:ab:ad:97:
         9e:ab:f0:e8:aa:a6:88:31:58:8a:1b:00:a0:6a:48:4b:6e:0f:
         e1:56:12:55:a2:a3:13:0e:92:10:99:55:4f:2e:f6:27:0b:1f:
         a4:41:e7:06:d3:a9:dd:2b:0f:c5:f3:3d:f0:d5:26:ee:e2:35:
         82:45:3b:89:fb:8a:65:4a:44:e2:3c:02:67:51:d6:61:1c:4e:
         78:84:35:82:27:af:7b:9a:d2:de:5c:d2:70:91:29:2d:3c:9c:
         62:f6:40:6b:af:da:fe:54:ff:46:f8:8f:e1:8d:ad:b3:50:be:
         8d:f6:14:5f:0c:ba:c2:29:4a:83:fe:fb:7c:a0:a4:61:03:23:
         eb:8f:dd:b6:04:b2:c7:b0:0c:8d:97:c3:d8:8b:24:0e:08:51:
         f1:9e:93:60:97:24:37:ef
-----BEGIN CERTIFICATE-----
MIIFDzCCAvegAwIBAgIBATANBgkqhkiG9w0BAQsFADB+MQswCQYDVQQGEwJERTEL
MAkGA1UECAwCTkkxCzAJBgNVBAcMAk9TMQ4wDAYDVQQKDAVwYWxvdzEUMBIGA1UE
CwwLRGV2ZWxvcG1lbnQxEjAQBgNVBAMMCXBhbG93Lm9yZzEbMBkGCSqGSIb3DQEJ
ARYMY2FAcGFsb3cub3JnMB4XDTIxMDIyMjA2NTY1MloXDTMxMDIyMDA2NTY1Mlow
TzELMAkGA1UEBhMCREUxCzAJBgNVBAgMAk5JMQswCQYDVQQHDAJPUzEOMAwGA1UE
CgwFcGFsb3cxFjAUBgNVBAMMDWRvY2tlci13ZWJhcGkwggEiMA0GCSqGSIb3DQEB
AQUAA4IBDwAwggEKAoIBAQDU911IzKdpSEw928hjvjg8ttFeriaHvOiowD7KJ/sL
nwulaYU81+vdr3geT+gGMy29xizXDLrOPbG4CMe7gd+pcTKRo3xrBBavAShr4C2r
LQqmYc/RlYvFaIs2ZjJkixWJtploRJ7FKO2VJYIxatTuUPw36iWGsjSFyGbNptIx
1ad61JR376NB/DWSF5xYwqsz5JnmqJe5J7lO0bqTHaFPlu7JF/LgAMiBpVxD7y0J
OrMGLnu9OWDKL5ZqZbq2ZrJPK6xxHng1MDqMDYjtPwaiVEPVy/ywXHahM83GThIj
+sSJ7olUfMlIFMsNH7L3scfhFTwEbakJRiDvhCwIiRJRAgMBAAGjgcYwgcMwHQYD
VR0OBBYEFAtPUPxuJkLyhg+GADERaZKCQXcKMB8GA1UdIwQYMBaAFPGmz6V4jBTp
HVOqxQH0Pnj09m7lMAkGA1UdEwQCMAAwCwYDVR0PBAQDAgWgMDsGA1UdEQQ0MDKC
CWxvY2FsaG9zdIINZG9ja2VyLXdlYmFwaYcEfwAAAYcQAAAAAAAAAAAAAAAAAAAA
ATAsBglghkgBhvhCAQ0EHxYdT3BlblNTTCBHZW5lcmF0ZWQgQ2VydGlmaWNhdGUw
DQYJKoZIhvcNAQELBQADggIBAFkFvsfb2izBKyNrhMR5Xr6ubzTphm8PrtsAFZKQ
bFpDAmgDStsFT21Mj1/qan4R6I/jMdUwX9vmEOziiim/ewzuQY68zxd7Hg7YcblA
uTHN48XLkPIn7IpFc8igEuU8NqMfUKn8MqM1enYV8zCpx3h1PCG0Qk3dzE9x1LEI
UZVJnxArAynH4PP6/9GGiaRgVodX/hGB/GWJMbSiiJtHJQ/RyR5yyotvvx3n82T6
UOmPCsyG2qyWTJL/SbxQ6H+8RiTsn9a2KsDjicE+r2L/3Zl2/FGyskC4aGj/05JV
p4lnIjtgOXk30Ini53RPab+3+8Z9W3jy8OlzjRmFGfDsDF0QaPGTvA43Gm/Z3dqT
kahRwafPXnNS0JsUYELMRf3o68+VIlG0c46IjwLG4wKChVYjckKJzWtFtNAKJOJq
f166PkEShmZT8gPllqC6cQ0JCmaDE5iMz1v+bec1K2nVWTh5u/BzxKutl56r8Oiq
pogxWIobAKBqSEtuD+FWElWioxMOkhCZVU8u9icLH6RB5wbTqd0rD8XzPfDVJu7i
NYJFO4n7imVKROI8AmdR1mEcTniENYInr3ua0t5c0nCRKS08nGL2QGuv2v5U/0b4
j+GNrbNQvo32FF8MusIpSoP++3ygpGEDI+uP3bYEssewDI2Xw9iLJA4IUfGek2CX
JDfv
-----END CERTIFICATE-----
